target datalayout = "e-m:e-p270:32:32-p271:32:32-p272:64:64-i64:64-i128:128-f80:128-n8:16:32:64-S128"
target triple = "x86_64-pc-linux-gnu"

%"class.std::__cxx11::basic_string" = type { %"struct.std::__cxx11::basic_string<char>::_Alloc_hider", i64, %union.anon }
%"struct.std::__cxx11::basic_string<char>::_Alloc_hider" = type { ptr }
%union.anon = type { i64, [8 x i8] }
%"class.(anonymous namespace)::JBT" = type <{ %"class.std::__cxx11::basic_string", %"class.(anonymous namespace)::JBTIndex", [4 x i8] }>
%"class.(anonymous namespace)::JBTIndex" = type { i32 }
%"class.__gnu_cxx::__normal_iterator.1057" = type { ptr }
%"struct.__gnu_cxx::__ops::_Iter_comp_iter.1161" = type { ptr }

; Function Attrs: mustprogress nounwind uwtable
define internal void @_ZN9__gnu_cxx17__normal_iteratorIPN12_GLOBAL__N_13JBTINSt7__cxx1112basic_stringIcSt11char_traitsIcESaIcEEEEESt6vectorIS9_SaIS9_EEEC2ERKSA_(ptr noundef nonnull align 8 dereferenceable(8) %0, ptr noundef nonnull align 8 dereferenceable(8) %1) unnamed_addr #6 align 2 {
  %3 = alloca ptr, align 8
  %4 = alloca ptr, align 8
  store ptr %0, ptr %3, align 8, !tbaa !1424
  store ptr %1, ptr %4, align 8, !tbaa !1426
  %5 = load ptr, ptr %3, align 8
  %6 = getelementptr inbounds nuw %"class.__gnu_cxx::__normal_iterator.1057", ptr %5, i32 0, i32 0
  %7 = load ptr, ptr %4, align 8, !tbaa !1426
  %8 = load ptr, ptr %7, align 8, !tbaa !992
  store ptr %8, ptr %6, align 8, !tbaa !1428
  ret void
}

; Function Attrs: mustprogress nounwind uwtable
define internal noundef nonnull align 8 dereferenceable(8) ptr @_ZNK9__gnu_cxx17__normal_iteratorIPN12_GLOBAL__N_13JBTINSt7__cxx1112basic_stringIcSt11char_traitsIcESaIcEEEEESt6vectorIS9_SaIS9_EEE4baseEv(ptr noundef nonnull align 8 dereferenceable(8) %0) #6 align 2 {
  %2 = alloca ptr, align 8
  store ptr %0, ptr %2, align 8, !tbaa !1424
  %3 = load ptr, ptr %2, align 8
  %4 = getelementptr inbounds nuw %"class.__gnu_cxx::__normal_iterator.1057", ptr %3, i32 0, i32 0
  ret ptr %4
}

; Function Attrs: mustprogress nounwind uwtable
define internal ptr @_ZNK9__gnu_cxx17__normal_iteratorIPN12_GLOBAL__N_13JBTINSt7__cxx1112basic_stringIcSt11char_traitsIcESaIcEEEEESt6vectorIS9_SaIS9_EEEplEl(ptr noundef nonnull align 8 dereferenceable(8) %0, i64 noundef %1) #6 align 2 {
  %3 = alloca %"class.__gnu_cxx::__normal_iterator.1057", align 8
  %4 = alloca ptr, align 8
  %5 = alloca i64, align 8
  %6 = alloca ptr, align 8
  store ptr %0, ptr %4, align 8, !tbaa !1424
  store i64 %1, ptr %5, align 8, !tbaa !17
  %7 = load ptr, ptr %4, align 8
  call void @llvm.lifetime.start.p0(i64 8, ptr %6) #3
  %8 = getelementptr inbounds nuw %"class.__gnu_cxx::__normal_iterator.1057", ptr %7, i32 0, i32 0
  %9 = load ptr, ptr %8, align 8, !tbaa !1428
  %10 = load i64, ptr %5, align 8, !tbaa !17
  %11 = getelementptr inbounds %"class.(anonymous namespace)::JBT", ptr %9, i64 %10
  store ptr %11, ptr %6, align 8, !tbaa !992
  call void @_ZN9__gnu_cxx17__normal_iteratorIPN12_GLOBAL__N_13JBTINSt7__cxx1112basic_stringIcSt11char_traitsIcESaIcEEEEESt6vectorIS9_SaIS9_EEEC2ERKSA_(ptr noundef nonnull align 8 dereferenceable(8) %3, ptr noundef nonnull align 8 dereferenceable(8) %6) #3
  call void @llvm.lifetime.end.p0(i64 8, ptr %6) #3
  %12 = getelementptr inbounds nuw %"class.__gnu_cxx::__normal_iterator.1057", ptr %3, i32 0, i32 0
  %13 = load ptr, ptr %12, align 8
  ret ptr %13
}

; Function Attrs: inlinehint mustprogress nounwind uwtable
define internal noundef i64 @_ZN9__gnu_cxxmiIPN12_GLOBAL__N_13JBTINSt7__cxx1112basic_stringIcSt11char_traitsIcESaIcEEEEESt6vectorIS9_SaIS9_EEEENS_17__normal_iteratorIT_T0_E15difference_typeERKSH_SK_(ptr noundef nonnull align 8 dereferenceable(8) %0, ptr noundef nonnull align 8 dereferenceable(8) %1) #7 {
  %3 = alloca ptr, align 8
  %4 = alloca ptr, align 8
  store ptr %0, ptr %3, align 8, !tbaa !1424
  store ptr %1, ptr %4, align 8, !tbaa !1424
  %5 = load ptr, ptr %3, align 8, !tbaa !1424
  %6 = call noundef nonnull align 8 dereferenceable(8) ptr @_ZNK9__gnu_cxx17__normal_iteratorIPN12_GLOBAL__N_13JBTINSt7__cxx1112basic_stringIcSt11char_traitsIcESaIcEEEEESt6vectorIS9_SaIS9_EEE4baseEv(ptr noundef nonnull align 8 dereferenceable(8) %5) #3
  %7 = load ptr, ptr %6, align 8, !tbaa !992
  %8 = load ptr, ptr %4, align 8, !tbaa !1424
  %9 = call noundef nonnull align 8 dereferenceable(8) ptr @_ZNK9__gnu_cxx17__normal_iteratorIPN12_GLOBAL__N_13JBTINSt7__cxx1112basic_stringIcSt11char_traitsIcESaIcEEEEESt6vectorIS9_SaIS9_EEE4baseEv(ptr noundef nonnull align 8 dereferenceable(8) %8) #3
  %10 = load ptr, ptr %9, align 8, !tbaa !992
  %11 = ptrtoint ptr %7 to i64
  %12 = ptrtoint ptr %10 to i64
  %13 = sub i64 %11, %12
  %14 = sdiv exact i64 %13, 40
  ret i64 %14
}

; Function Attrs: mustprogress uwtable
define internal void @_ZSt22__stable_sort_adaptiveIN9__gnu_cxx17__normal_iteratorIPN12_GLOBAL__N_13JBTINSt7__cxx1112basic_stringIcSt11char_traitsIcESaIcEEEEESt6vectorISA_SaISA_EEEESB_lNS0_5__ops15_Iter_comp_iterIPFbRKSA_SJ_EEEEvT_SN_T0_T1_T2_(ptr %0, ptr %1, ptr noundef %2, i64 noundef %3, ptr %4) #5 {
  %6 = alloca %"class.__gnu_cxx::__normal_iterator.1057", align 8
  %7 = alloca %"class.__gnu_cxx::__normal_iterator.1057", align 8
  %8 = alloca %"struct.__gnu_cxx::__ops::_Iter_comp_iter.1161", align 8
  %9 = alloca ptr, align 8
  %10 = alloca i64, align 8
  %11 = alloca i64, align 8
  %12 = alloca %"class.__gnu_cxx::__normal_iterator.1057", align 8
  %13 = alloca %"class.__gnu_cxx::__normal_iterator.1057", align 8
  %14 = alloca %"class.__gnu_cxx::__normal_iterator.1057", align 8
  %15 = alloca %"struct.__gnu_cxx::__ops::_Iter_comp_iter.1161", align 8
  %16 = alloca %"class.__gnu_cxx::__normal_iterator.1057", align 8
  %17 = alloca %"class.__gnu_cxx::__normal_iterator.1057", align 8
  %18 = alloca %"struct.__gnu_cxx::__ops::_Iter_comp_iter.1161", align 8
  %19 = alloca %"class.__gnu_cxx::__normal_iterator.1057", align 8
  %20 = alloca %"class.__gnu_cxx::__normal_iterator.1057", align 8
  %21 = alloca %"struct.__gnu_cxx::__ops::_Iter_comp_iter.1161", align 8
  %22 = alloca %"class.__gnu_cxx::__normal_iterator.1057", align 8
  %23 = alloca %"class.__gnu_cxx::__normal_iterator.1057", align 8
  %24 = alloca %"struct.__gnu_cxx::__ops::_Iter_comp_iter.1161", align 8
  %25 = alloca %"class.__gnu_cxx::__normal_iterator.1057", align 8
  %26 = alloca %"class.__gnu_cxx::__normal_iterator.1057", align 8
  %27 = alloca %"class.__gnu_cxx::__normal_iterator.1057", align 8
  %28 = alloca %"struct.__gnu_cxx::__ops::_Iter_comp_iter.1161", align 8
  %29 = getelementptr inbounds nuw %"class.__gnu_cxx::__normal_iterator.1057", ptr %6, i32 0, i32 0
  store ptr %0, ptr %29, align 8
  %30 = getelementptr inbounds nuw %"class.__gnu_cxx::__normal_iterator.1057", ptr %7, i32 0, i32 0
  store ptr %1, ptr %30, align 8
  %31 = getelementptr inbounds nuw %"struct.__gnu_cxx::__ops::_Iter_comp_iter.1161", ptr %8, i32 0, i32 0
  store ptr %4, ptr %31, align 8
  store ptr %2, ptr %9, align 8, !tbaa !992
  store i64 %3, ptr %10, align 8, !tbaa !17
  call void @llvm.lifetime.start.p0(i64 8, ptr %11) #3
  %32 = call noundef i64 @_ZN9__gnu_cxxmiIPN12_GLOBAL__N_13JBTINSt7__cxx1112basic_stringIcSt11char_traitsIcESaIcEEEEESt6vectorIS9_SaIS9_EEEENS_17__normal_iteratorIT_T0_E15difference_typeERKSH_SK_(ptr noundef nonnull align 8 dereferenceable(8) %7, ptr noundef nonnull align 8 dereferenceable(8) %6) #3
  %33 = add nsw i64 %32, 1
  %34 = sdiv i64 %33, 2
  store i64 %34, ptr %11, align 8, !tbaa !17
  call void @llvm.lifetime.start.p0(i64 8, ptr %12) #3
  %35 = load i64, ptr %11, align 8, !tbaa !17
  %36 = call ptr @_ZNK9__gnu_cxx17__normal_iteratorIPN12_GLOBAL__N_13JBTINSt7__cxx1112basic_stringIcSt11char_traitsIcESaIcEEEEESt6vectorIS9_SaIS9_EEEplEl(ptr noundef nonnull align 8 dereferenceable(8) %6, i64 noundef %35) #3
  %37 = getelementptr inbounds nuw %"class.__gnu_cxx::__normal_iterator.1057", ptr %12, i32 0, i32 0
  store ptr %36, ptr %37, align 8
  %38 = load i64, ptr %11, align 8, !tbaa !17
  %39 = load i64, ptr %10, align 8, !tbaa !17
  %40 = icmp sgt i64 %38, %39
  br i1 %40, label %41, label %58

41:                                               ; preds = %5
  call void @llvm.memcpy.p0.p0.i64(ptr align 8 %13, ptr align 8 %6, i64 8, i1 false), !tbaa.struct !1755
  call void @llvm.memcpy.p0.p0.i64(ptr align 8 %14, ptr align 8 %12, i64 8, i1 false), !tbaa.struct !1755
  %42 = load ptr, ptr %9, align 8, !tbaa !992
  %43 = load i64, ptr %10, align 8, !tbaa !17
  call void @llvm.memcpy.p0.p0.i64(ptr align 8 %15, ptr align 8 %8, i64 8, i1 false), !tbaa.struct !1815
  %44 = getelementptr inbounds nuw %"class.__gnu_cxx::__normal_iterator.1057", ptr %13, i32 0, i32 0
  %45 = load ptr, ptr %44, align 8
  %46 = getelementptr inbounds nuw %"class.__gnu_cxx::__normal_iterator.1057", ptr %14, i32 0, i32 0
  %47 = load ptr, ptr %46, align 8
  %48 = getelementptr inbounds nuw %"struct.__gnu_cxx::__ops::_Iter_comp_iter.1161", ptr %15, i32 0, i32 0
  %49 = load ptr, ptr %48, align 8
  call void @_ZSt22__stable_sort_adaptiveIN9__gnu_cxx17__normal_iteratorIPN12_GLOBAL__N_13JBTINSt7__cxx1112basic_stringIcSt11char_traitsIcESaIcEEEEESt6vectorISA_SaISA_EEEESB_lNS0_5__ops15_Iter_comp_iterIPFbRKSA_SJ_EEEEvT_SN_T0_T1_T2_(ptr %45, ptr %47, ptr noundef %42, i64 noundef %43, ptr %49)
  call void @llvm.memcpy.p0.p0.i64(ptr align 8 %16, ptr align 8 %12, i64 8, i1 false), !tbaa.struct !1755
  call void @llvm.memcpy.p0.p0.i64(ptr align 8 %17, ptr align 8 %7, i64 8, i1 false), !tbaa.struct !1755
  %50 = load ptr, ptr %9, align 8, !tbaa !992
  %51 = load i64, ptr %10, align 8, !tbaa !17
  call void @llvm.memcpy.p0.p0.i64(ptr align 8 %18, ptr align 8 %8, i64 8, i1 false), !tbaa.struct !1815
  %52 = getelementptr inbounds nuw %"class.__gnu_cxx::__normal_iterator.1057", ptr %16, i32 0, i32 0
  %53 = load ptr, ptr %52, align 8
  %54 = getelementptr inbounds nuw %"class.__gnu_cxx::__normal_iterator.1057", ptr %17, i32 0, i32 0
  %55 = load ptr, ptr %54, align 8
  %56 = getelementptr inbounds nuw %"struct.__gnu_cxx::__ops::_Iter_comp_iter.1161", ptr %18, i32 0, i32 0
  %57 = load ptr, ptr %56, align 8
  call void @_ZSt22__stable_sort_adaptiveIN9__gnu_cxx17__normal_iteratorIPN12_GLOBAL__N_13JBTINSt7__cxx1112basic_stringIcSt11char_traitsIcESaIcEEEEESt6vectorISA_SaISA_EEEESB_lNS0_5__ops15_Iter_comp_iterIPFbRKSA_SJ_EEEEvT_SN_T0_T1_T2_(ptr %53, ptr %55, ptr noundef %50, i64 noundef %51, ptr %57)
  br label %73

58:                                               ; preds = %5
  call void @llvm.memcpy.p0.p0.i64(ptr align 8 %19, ptr align 8 %6, i64 8, i1 false), !tbaa.struct !1755
  call void @llvm.memcpy.p0.p0.i64(ptr align 8 %20, ptr align 8 %12, i64 8, i1 false), !tbaa.struct !1755
  %59 = load ptr, ptr %9, align 8, !tbaa !992
  call void @llvm.memcpy.p0.p0.i64(ptr align 8 %21, ptr align 8 %8, i64 8, i1 false), !tbaa.struct !1815
  %60 = getelementptr inbounds nuw %"class.__gnu_cxx::__normal_iterator.1057", ptr %19, i32 0, i32 0
  %61 = load ptr, ptr %60, align 8
  %62 = getelementptr inbounds nuw %"class.__gnu_cxx::__normal_iterator.1057", ptr %20, i32 0, i32 0
  %63 = load ptr, ptr %62, align 8
  %64 = getelementptr inbounds nuw %"struct.__gnu_cxx::__ops::_Iter_comp_iter.1161", ptr %21, i32 0, i32 0
  %65 = load ptr, ptr %64, align 8
  call void @_ZSt24__merge_sort_with_bufferIN9__gnu_cxx17__normal_iteratorIPN12_GLOBAL__N_13JBTINSt7__cxx1112basic_stringIcSt11char_traitsIcESaIcEEEEESt6vectorISA_SaISA_EEEESB_NS0_5__ops15_Iter_comp_iterIPFbRKSA_SJ_EEEEvT_SN_T0_T1_(ptr %61, ptr %63, ptr noundef %59, ptr %65)
  call void @llvm.memcpy.p0.p0.i64(ptr align 8 %22, ptr align 8 %12, i64 8, i1 false), !tbaa.struct !1755
  call void @llvm.memcpy.p0.p0.i64(ptr align 8 %23, ptr align 8 %7, i64 8, i1 false), !tbaa.struct !1755
  %66 = load ptr, ptr %9, align 8, !tbaa !992
  call void @llvm.memcpy.p0.p0.i64(ptr align 8 %24, ptr align 8 %8, i64 8, i1 false), !tbaa.struct !1815
  %67 = getelementptr inbounds nuw %"class.__gnu_cxx::__normal_iterator.1057", ptr %22, i32 0, i32 0
  %68 = load ptr, ptr %67, align 8
  %69 = getelementptr inbounds nuw %"class.__gnu_cxx::__normal_iterator.1057", ptr %23, i32 0, i32 0
  %70 = load ptr, ptr %69, align 8
  %71 = getelementptr inbounds nuw %"struct.__gnu_cxx::__ops::_Iter_comp_iter.1161", ptr %24, i32 0, i32 0
  %72 = load ptr, ptr %71, align 8
  call void @_ZSt24__merge_sort_with_bufferIN9__gnu_cxx17__normal_iteratorIPN12_GLOBAL__N_13JBTINSt7__cxx1112basic_stringIcSt11char_traitsIcESaIcEEEEESt6vectorISA_SaISA_EEEESB_NS0_5__ops15_Iter_comp_iterIPFbRKSA_SJ_EEEEvT_SN_T0_T1_(ptr %68, ptr %70, ptr noundef %66, ptr %72)
  br label %73

73:                                               ; preds = %58, %41
  call void @llvm.memcpy.p0.p0.i64(ptr align 8 %25, ptr align 8 %6, i64 8, i1 false), !tbaa.struct !1755
  call void @llvm.memcpy.p0.p0.i64(ptr align 8 %26, ptr align 8 %12, i64 8, i1 false), !tbaa.struct !1755
  call void @llvm.memcpy.p0.p0.i64(ptr align 8 %27, ptr align 8 %7, i64 8, i1 false), !tbaa.struct !1755
  %74 = call noundef i64 @_ZN9__gnu_cxxmiIPN12_GLOBAL__N_13JBTINSt7__cxx1112basic_stringIcSt11char_traitsIcESaIcEEEEESt6vectorIS9_SaIS9_EEEENS_17__normal_iteratorIT_T0_E15difference_typeERKSH_SK_(ptr noundef nonnull align 8 dereferenceable(8) %12, ptr noundef nonnull align 8 dereferenceable(8) %6) #3
  %75 = call noundef i64 @_ZN9__gnu_cxxmiIPN12_GLOBAL__N_13JBTINSt7__cxx1112basic_stringIcSt11char_traitsIcESaIcEEEEESt6vectorIS9_SaIS9_EEEENS_17__normal_iteratorIT_T0_E15difference_typeERKSH_SK_(ptr noundef nonnull align 8 dereferenceable(8) %7, ptr noundef nonnull align 8 dereferenceable(8) %12) #3
  %76 = load ptr, ptr %9, align 8, !tbaa !992
  %77 = load i64, ptr %10, align 8, !tbaa !17
  call void @llvm.memcpy.p0.p0.i64(ptr align 8 %28, ptr align 8 %8, i64 8, i1 false), !tbaa.struct !1815
  %78 = getelementptr inbounds nuw %"class.__gnu_cxx::__normal_iterator.1057", ptr %25, i32 0, i32 0
  %79 = load ptr, ptr %78, align 8
  %80 = getelementptr inbounds nuw %"class.__gnu_cxx::__normal_iterator.1057", ptr %26, i32 0, i32 0
  %81 = load ptr, ptr %80, align 8
  %82 = getelementptr inbounds nuw %"class.__gnu_cxx::__normal_iterator.1057", ptr %27, i32 0, i32 0
  %83 = load ptr, ptr %82, align 8
  %84 = getelementptr inbounds nuw %"struct.__gnu_cxx::__ops::_Iter_comp_iter.1161", ptr %28, i32 0, i32 0
  %85 = load ptr, ptr %84, align 8
  %86 = ptrtoint ptr %85 to i64
  call void @_ZSt16__merge_adaptiveIN9__gnu_cxx17__normal_iteratorIPN12_GLOBAL__N_13JBTINSt7__cxx1112basic_stringIcSt11char_traitsIcESaIcEEEEESt6vectorISA_SaISA_EEEElSB_NS0_5__ops15_Iter_comp_iterIPFbRKSA_SJ_EEEEvT_SN_SN_T0_SO_T1_SO_T2_(ptr %79, ptr %81, ptr %83, i64 noundef %74, i64 noundef %75, ptr noundef %76, i64 noundef %77, i64 %86)
  call void @llvm.lifetime.end.p0(i64 8, ptr %12) #3
  call void @llvm.lifetime.end.p0(i64 8, ptr %11) #3
  ret void
}